target datalayout = "e-m:e-p270:32:32-p271:32:32-p272:64:64-i64:64-i128:128-f80:128-n8:16:32:64-S128"
target triple = "x86_64-pc-linux-gnu"

%struct.UBiDi = type { ptr, ptr, i32, i32, i32, i32, i32, i32, i32, i32, i32, ptr, ptr, ptr, ptr, ptr, ptr, i8, i8, ptr, ptr, i8, i32, i32, i8, i8, i8, ptr, i32, ptr, i32, ptr, i32, i32, i32, i32, i32, ptr, [10 x %struct.Para], i32, ptr, [1 x %struct.Run], i32, ptr, [5 x %struct.Isolate], %struct.InsertPoints, i32, ptr, ptr }
%struct.Para = type { i32, i32 }
%struct.Run = type { i32, i32, i32 }
%struct.Isolate = type { i32, i32, i32, i16 }
%struct.InsertPoints = type { i32, i32, i32, i32, ptr }

; Function Attrs: inlinehint mustprogress nounwind uwtable
define internal noundef signext i8 @_ZL9U_FAILURE10UErrorCode(i32 noundef %0) #2 {
  %2 = alloca i32, align 4
  store i32 %0, ptr %2, align 4, !tbaa !3
  %3 = load i32, ptr %2, align 4, !tbaa !3
  %4 = icmp sgt i32 %3, 0
  %5 = zext i1 %4 to i8
  ret i8 %5
}

; Function Attrs: mustprogress uwtable
define void @ubidi_setContext_77(ptr noundef %0, ptr noundef %1, i32 noundef %2, ptr noundef %3, i32 noundef %4, ptr noundef %5) #0 {
  %7 = alloca ptr, align 8
  %8 = alloca ptr, align 8
  %9 = alloca i32, align 4
  %10 = alloca ptr, align 8
  %11 = alloca i32, align 4
  %12 = alloca ptr, align 8
  store ptr %0, ptr %7, align 8, !tbaa !11
  store ptr %1, ptr %8, align 8, !tbaa !45
  store i32 %2, ptr %9, align 4, !tbaa !7
  store ptr %3, ptr %10, align 8, !tbaa !45
  store i32 %4, ptr %11, align 4, !tbaa !7
  store ptr %5, ptr %12, align 8, !tbaa !9
  br label %13

13:                                               ; preds = %6
  %14 = load ptr, ptr %12, align 8, !tbaa !9
  %15 = icmp eq ptr %14, null
  br i1 %15, label %21, label %16

16:                                               ; preds = %13
  %17 = load ptr, ptr %12, align 8, !tbaa !9
  %18 = load i32, ptr %17, align 4, !tbaa !3
  %19 = call noundef signext i8 @_ZL9U_FAILURE10UErrorCode(i32 noundef %18)
  %20 = icmp ne i8 %19, 0
  br i1 %20, label %21, label %22

21:                                               ; preds = %16, %13
  br label %77

22:                                               ; preds = %16
  br label %23

23:                                               ; preds = %22
  %24 = load ptr, ptr %7, align 8, !tbaa !11
  %25 = icmp eq ptr %24, null
  br i1 %25, label %44, label %26

26:                                               ; preds = %23
  %27 = load i32, ptr %9, align 4, !tbaa !7
  %28 = icmp slt i32 %27, -1
  br i1 %28, label %44, label %29

29:                                               ; preds = %26
  %30 = load i32, ptr %11, align 4, !tbaa !7
  %31 = icmp slt i32 %30, -1
  br i1 %31, label %44, label %32

32:                                               ; preds = %29
  %33 = load ptr, ptr %8, align 8, !tbaa !45
  %34 = icmp eq ptr %33, null
  br i1 %34, label %35, label %38

35:                                               ; preds = %32
  %36 = load i32, ptr %9, align 4, !tbaa !7
  %37 = icmp ne i32 %36, 0
  br i1 %37, label %44, label %38

38:                                               ; preds = %35, %32
  %39 = load ptr, ptr %10, align 8, !tbaa !45
  %40 = icmp eq ptr %39, null
  br i1 %40, label %41, label %46

41:                                               ; preds = %38
  %42 = load i32, ptr %11, align 4, !tbaa !7
  %43 = icmp ne i32 %42, 0
  br i1 %43, label %44, label %46

44:                                               ; preds = %41, %35, %29, %26, %23
  %45 = load ptr, ptr %12, align 8, !tbaa !9
  store i32 1, ptr %45, align 4, !tbaa !3
  br label %77

46:                                               ; preds = %41, %38
  %47 = load i32, ptr %9, align 4, !tbaa !7
  %48 = icmp eq i32 %47, -1
  br i1 %48, label %49, label %54

49:                                               ; preds = %46
  %50 = load ptr, ptr %8, align 8, !tbaa !45
  %51 = call i32 @u_strlen_77(ptr noundef %50)
  %52 = load ptr, ptr %7, align 8, !tbaa !11
  %53 = getelementptr inbounds nuw %struct.UBiDi, ptr %52, i32 0, i32 28
  store i32 %51, ptr %53, align 8, !tbaa !60
  br label %58

54:                                               ; preds = %46
  %55 = load i32, ptr %9, align 4, !tbaa !7
  %56 = load ptr, ptr %7, align 8, !tbaa !11
  %57 = getelementptr inbounds nuw %struct.UBiDi, ptr %56, i32 0, i32 28
  store i32 %55, ptr %57, align 8, !tbaa !60
  br label %58

58:                                               ; preds = %54, %49
  %59 = load i32, ptr %11, align 4, !tbaa !7
  %60 = icmp eq i32 %59, -1
  br i1 %60, label %61, label %66

61:                                               ; preds = %58
  %62 = load ptr, ptr %10, align 8, !tbaa !45
  %63 = call i32 @u_strlen_77(ptr noundef %62)
  %64 = load ptr, ptr %7, align 8, !tbaa !11
  %65 = getelementptr inbounds nuw %struct.UBiDi, ptr %64, i32 0, i32 30
  store i32 %63, ptr %65, align 8, !tbaa !61
  br label %70

66:                                               ; preds = %58
  %67 = load i32, ptr %11, align 4, !tbaa !7
  %68 = load ptr, ptr %7, align 8, !tbaa !11
  %69 = getelementptr inbounds nuw %struct.UBiDi, ptr %68, i32 0, i32 30
  store i32 %67, ptr %69, align 8, !tbaa !61
  br label %70

70:                                               ; preds = %66, %61
  %71 = load ptr, ptr %8, align 8, !tbaa !45
  %72 = load ptr, ptr %7, align 8, !tbaa !11
  %73 = getelementptr inbounds nuw %struct.UBiDi, ptr %72, i32 0, i32 27
  store ptr %71, ptr %73, align 8, !tbaa !62
  %74 = load ptr, ptr %10, align 8, !tbaa !45
  %75 = load ptr, ptr %7, align 8, !tbaa !11
  %76 = getelementptr inbounds nuw %struct.UBiDi, ptr %75, i32 0, i32 29
  store ptr %74, ptr %76, align 8, !tbaa !63
  br label %77

77:                                               ; preds = %70, %44, %21
  ret void
}