; Function Attrs: mustprogress uwtable
define void @ubidi_setContext_77(ptr noundef writeonly %0, ptr noundef %1, i32 noundef %2, ptr noundef %3, i32 noundef %4, ptr noundef %5) local_unnamed_addr #0 {
  %7 = icmp eq ptr %5, null
  br i1 %7, label %35, label %8

8:                                                ; preds = %6
  %9 = load i32, ptr %5, align 4, !tbaa !23
  %10 = icmp slt i32 %9, 1
  br i1 %10, label %11, label %35

11:                                               ; preds = %8
  %12 = icmp eq ptr %0, null
  %13 = icmp slt i32 %2, -1
  %or.cond = or i1 %12, %13
  %14 = icmp slt i32 %4, -1
  %or.cond3 = or i1 %or.cond, %14
  br i1 %or.cond3, label %21, label %15

15:                                               ; preds = %11
  %16 = icmp eq ptr %1, null
  %17 = icmp ne i32 %2, 0
  %or.cond5 = and i1 %16, %17
  br i1 %or.cond5, label %21, label %18

18:                                               ; preds = %15
  %19 = icmp eq ptr %3, null
  %20 = icmp ne i32 %4, 0
  %or.cond7 = and i1 %19, %20
  br i1 %or.cond7, label %21, label %22

21:                                               ; preds = %18, %15, %11
  store i32 1, ptr %5, align 4, !tbaa !23
  br label %35

22:                                               ; preds = %18
  %23 = icmp eq i32 %2, -1
  br i1 %23, label %24, label %26

24:                                               ; preds = %22
  %25 = tail call i32 @u_strlen_77(ptr noundef %1)
  br label %26

26:                                               ; preds = %22, %24
  %.sink = phi i32 [ %25, %24 ], [ %2, %22 ]
  %27 = getelementptr inbounds nuw i8, ptr %0, i64 152
  store i32 %.sink, ptr %27, align 8, !tbaa !47
  %28 = icmp eq i32 %4, -1
  br i1 %28, label %29, label %31

29:                                               ; preds = %26
  %30 = tail call i32 @u_strlen_77(ptr noundef %3)
  br label %31

31:                                               ; preds = %26, %29
  %.sink33 = phi i32 [ %30, %29 ], [ %4, %26 ]
  %32 = getelementptr inbounds nuw i8, ptr %0, i64 168
  store i32 %.sink33, ptr %32, align 8, !tbaa !48
  %33 = getelementptr inbounds nuw i8, ptr %0, i64 144
  store ptr %1, ptr %33, align 8, !tbaa !49
  %34 = getelementptr inbounds nuw i8, ptr %0, i64 160
  store ptr %3, ptr %34, align 8, !tbaa !50
  br label %35

35:                                               ; preds = %6, %8, %31, %21
  ret void
}